; Function Attrs: mustprogress nofree norecurse nosync nounwind null_pointer_is_valid sspstrong willreturn memory(read, inaccessiblemem: none) uwtable
define noundef nonnull ptr @stnode_type_name(ptr noundef readonly captures(none) %0) local_unnamed_addr #8 {
  %2 = load ptr, ptr %0, align 8
  %3 = load i32, ptr %2, align 8
  %4 = icmp ult i32 %3, 16
  br i1 %4, label %switch.lookup, label %sttype_name.exit

switch.lookup:                                    ; preds = %1
  %5 = zext nneg i32 %3 to i64
  %switch.gep = getelementptr inbounds nuw [16 x ptr], ptr @switch.table.sprint_node, i64 0, i64 %5
  %switch.load = load ptr, ptr %switch.gep, align 8
  br label %sttype_name.exit

sttype_name.exit:                                 ; preds = %1, %switch.lookup
  %.0.i = phi ptr [ %switch.load, %switch.lookup ], [ @.str.16, %1 ]
  ret ptr %.0.i
}